target datalayout = "e-m:e-p270:32:32-p271:32:32-p272:64:64-i64:64-i128:128-f80:128-n8:16:32:64-S128"
target triple = "x86_64-pc-linux-gnu"

%struct.bio_st = type { ptr, ptr, ptr, ptr, ptr, i32, i32, i32, i32, i32, ptr, ptr, ptr, %struct.CRYPTO_REF_COUNT, i64, i64, %struct.crypto_ex_data_st }
%struct.CRYPTO_REF_COUNT = type { i32 }
%struct.crypto_ex_data_st = type { ptr, ptr }

; Function Attrs: nounwind uwtable
define i32 @BIO_sock_non_fatal_error(i32 noundef %0) #0 {
  %2 = alloca i32, align 4
  %3 = alloca i32, align 4
  store i32 %0, ptr %3, align 4, !tbaa !3
  %4 = load i32, ptr %3, align 4, !tbaa !3
  switch i32 %4, label %6 [
    i32 11, label %5
    i32 107, label %5
    i32 4, label %5
    i32 71, label %5
    i32 115, label %5
    i32 114, label %5
  ]

5:                                                ; preds = %1, %1, %1, %1, %1, %1
  store i32 1, ptr %2, align 4
  br label %8

6:                                                ; preds = %1
  br label %7

7:                                                ; preds = %6
  store i32 0, ptr %2, align 4
  br label %8

8:                                                ; preds = %7, %5
  %9 = load i32, ptr %2, align 4
  ret i32 %9
}

; Function Attrs: nounwind uwtable
define i32 @BIO_sock_should_retry(i32 noundef %0) #0 {
  %2 = alloca i32, align 4
  %3 = alloca i32, align 4
  %4 = alloca i32, align 4
  %5 = alloca i32, align 4
  store i32 %0, ptr %3, align 4, !tbaa !3
  call void @llvm.lifetime.start.p0(i64 4, ptr %4) #6
  %6 = load i32, ptr %3, align 4, !tbaa !3
  %7 = icmp eq i32 %6, 0
  br i1 %7, label %11, label %8

8:                                                ; preds = %1
  %9 = load i32, ptr %3, align 4, !tbaa !3
  %10 = icmp eq i32 %9, -1
  br i1 %10, label %11, label %16

11:                                               ; preds = %8, %1
  %12 = call ptr @__errno_location() #7
  %13 = load i32, ptr %12, align 4, !tbaa !3
  store i32 %13, ptr %4, align 4, !tbaa !3
  %14 = load i32, ptr %4, align 4, !tbaa !3
  %15 = call i32 @BIO_sock_non_fatal_error(i32 noundef %14)
  store i32 %15, ptr %2, align 4
  store i32 1, ptr %5, align 4
  br label %17

16:                                               ; preds = %8
  store i32 0, ptr %2, align 4
  store i32 1, ptr %5, align 4
  br label %17

17:                                               ; preds = %16, %11
  call void @llvm.lifetime.end.p0(i64 4, ptr %4) #6
  %18 = load i32, ptr %2, align 4
  ret i32 %18
}

; Function Attrs: nounwind uwtable
define internal i32 @sock_write(ptr noundef %0, ptr noundef %1, i32 noundef %2) #0 {
  %4 = alloca ptr, align 8
  %5 = alloca ptr, align 8
  %6 = alloca i32, align 4
  %7 = alloca i32, align 4
  store ptr %0, ptr %4, align 8, !tbaa !7
  store ptr %1, ptr %5, align 8, !tbaa !10
  store i32 %2, ptr %6, align 4, !tbaa !3
  call void @llvm.lifetime.start.p0(i64 4, ptr %7) #6
  store i32 0, ptr %7, align 4, !tbaa !3
  %8 = call ptr @__errno_location() #7
  store i32 0, ptr %8, align 4, !tbaa !3
  %9 = load ptr, ptr %4, align 8, !tbaa !7
  %10 = getelementptr inbounds nuw %struct.bio_st, ptr %9, i32 0, i32 9
  %11 = load i32, ptr %10, align 8, !tbaa !12
  %12 = load ptr, ptr %5, align 8, !tbaa !10
  %13 = load i32, ptr %6, align 4, !tbaa !3
  %14 = sext i32 %13 to i64
  %15 = call i64 @write(i32 noundef %11, ptr noundef %12, i64 noundef %14)
  %16 = trunc i64 %15 to i32
  store i32 %16, ptr %7, align 4, !tbaa !3
  %17 = load ptr, ptr %4, align 8, !tbaa !7
  call void @BIO_clear_flags(ptr noundef %17, i32 noundef 15)
  %18 = load i32, ptr %7, align 4, !tbaa !3
  %19 = icmp sle i32 %18, 0
  br i1 %19, label %20, label %27

20:                                               ; preds = %3
  %21 = load i32, ptr %7, align 4, !tbaa !3
  %22 = call i32 @BIO_sock_should_retry(i32 noundef %21)
  %23 = icmp ne i32 %22, 0
  br i1 %23, label %24, label %26

24:                                               ; preds = %20
  %25 = load ptr, ptr %4, align 8, !tbaa !7
  call void @BIO_set_flags(ptr noundef %25, i32 noundef 10)
  br label %26

26:                                               ; preds = %24, %20
  br label %27

27:                                               ; preds = %26, %3
  %28 = load i32, ptr %7, align 4, !tbaa !3
  call void @llvm.lifetime.end.p0(i64 4, ptr %7) #6
  ret i32 %28
}